target datalayout = "e-m:e-p270:32:32-p271:32:32-p272:64:64-i64:64-i128:128-f80:128-n8:16:32:64-S128"
target triple = "x86_64-pc-linux-gnu"

%struct.pmix_object_t = type { %union.pthread_mutex_t, ptr, i32, %struct.pmix_tma }
%union.pthread_mutex_t = type { %struct.__pthread_mutex_s }
%struct.__pthread_mutex_s = type { i32, i32, i32, i32, i32, i16, i16, %struct.__pthread_internal_list }
%struct.__pthread_internal_list = type { ptr, ptr }
%struct.pmix_tma = type { ptr, ptr, ptr, ptr, ptr, ptr, ptr, ptr }
%struct.pmix_proc = type { [256 x i8], i32 }
%struct.timeval = type { i64, i64 }
%struct.pmix_iof_flags_t = type { i8, i8, i8, i8, i8, i8, i8, ptr, ptr, i8, i8, i8, i8, i8, i8 }
%struct.pmix_class_t = type { ptr, ptr, ptr, ptr, i32, i32, ptr, ptr, i64 }
%struct.event = type { %struct.event_callback, %union.anon.0, i32, ptr, %union.anon.2, i16, i16, %struct.timeval }
%struct.event_callback = type { %struct.anon, i16, i8, i8, %union.anon, ptr }
%struct.anon = type { ptr, ptr }
%union.anon = type { ptr }
%union.anon.0 = type { %struct.anon.1 }
%struct.anon.1 = type { ptr, ptr }
%union.anon.2 = type { %struct.anon.3 }
%struct.anon.3 = type { %struct.anon.4, %struct.timeval }
%struct.anon.4 = type { ptr, ptr }
%struct.pmix_lock_t = type { i32, %struct.pmix_mutex_t, %union.pthread_cond_t, i8 }
%struct.pmix_mutex_t = type { %struct.pmix_object_t, %union.pthread_mutex_t }
%union.pthread_cond_t = type { %struct.__pthread_cond_s }
%struct.__pthread_cond_s = type { %union.__atomic_wide_counter, %union.__atomic_wide_counter, [2 x i32], [2 x i32], i32, i32, [2 x i32] }
%union.__atomic_wide_counter = type { i64 }
%struct.pmix_setup_caddy_t = type { %struct.pmix_object_t, %struct.event, %struct.pmix_lock_t, ptr, ptr, i32, ptr, i64, %struct.pmix_proc, ptr, i64, i32, i32, ptr, i32, ptr, i64, ptr, i64, i8, ptr, ptr, i64, i16, %struct.pmix_iof_flags_t, ptr, i64, i64, i32, ptr, ptr, ptr, ptr, ptr, ptr }

@.str.86 = private unnamed_addr constant [21 x i8] c"pthread_mutex_lock()\00", align 1

; Function Attrs: inlinehint nounwind uwtable
define internal void @pmix_tma_free(ptr noundef %0, ptr noundef %1) #4 {
  %3 = alloca ptr, align 8
  %4 = alloca ptr, align 8
  store ptr %0, ptr %3, align 8, !tbaa !132
  store ptr %1, ptr %4, align 8, !tbaa !8
  %5 = load ptr, ptr %3, align 8, !tbaa !132
  %6 = icmp ne ptr null, %5
  br i1 %6, label %7, label %13

7:                                                ; preds = %2
  %8 = load ptr, ptr %3, align 8, !tbaa !132
  %9 = getelementptr inbounds nuw %struct.pmix_tma, ptr %8, i32 0, i32 5
  %10 = load ptr, ptr %9, align 8, !tbaa !148
  %11 = load ptr, ptr %3, align 8, !tbaa !132
  %12 = load ptr, ptr %4, align 8, !tbaa !8
  call void %10(ptr noundef %11, ptr noundef %12)
  br label %15

13:                                               ; preds = %2
  %14 = load ptr, ptr %4, align 8, !tbaa !8
  call void @free(ptr noundef %14) #14
  br label %15

15:                                               ; preds = %13, %7
  ret void
}

; Function Attrs: inlinehint nounwind uwtable
define internal void @pmix_obj_run_destructors(ptr noundef %0) #4 {
  %2 = alloca ptr, align 8
  %3 = alloca ptr, align 8
  store ptr %0, ptr %2, align 8, !tbaa !89
  call void @llvm.lifetime.start.p0(i64 8, ptr %3) #14
  %4 = load ptr, ptr %2, align 8, !tbaa !89
  %5 = getelementptr inbounds nuw %struct.pmix_object_t, ptr %4, i32 0, i32 1
  %6 = load ptr, ptr %5, align 8, !tbaa !82
  %7 = getelementptr inbounds nuw %struct.pmix_class_t, ptr %6, i32 0, i32 7
  %8 = load ptr, ptr %7, align 8, !tbaa !146
  store ptr %8, ptr %3, align 8, !tbaa !8
  br label %9

9:                                                ; preds = %13, %1
  %10 = load ptr, ptr %3, align 8, !tbaa !8
  %11 = load ptr, ptr %10, align 8, !tbaa !8
  %12 = icmp ne ptr null, %11
  br i1 %12, label %13, label %19

13:                                               ; preds = %9
  %14 = load ptr, ptr %3, align 8, !tbaa !8
  %15 = load ptr, ptr %14, align 8, !tbaa !8
  %16 = load ptr, ptr %2, align 8, !tbaa !89
  call void %15(ptr noundef %16)
  %17 = load ptr, ptr %3, align 8, !tbaa !8
  %18 = getelementptr inbounds nuw ptr, ptr %17, i32 1
  store ptr %18, ptr %3, align 8, !tbaa !8
  br label %9, !llvm.loop !147

19:                                               ; preds = %9
  call void @llvm.lifetime.end.p0(i64 8, ptr %3) #14
  ret void
}

; Function Attrs: alwaysinline nounwind uwtable
define internal i32 @pmix_obj_update(ptr noundef %0, i32 noundef %1) #6 {
  %3 = alloca ptr, align 8
  %4 = alloca i32, align 4
  %5 = alloca i32, align 4
  store ptr %0, ptr %3, align 8, !tbaa !89
  store i32 %1, ptr %4, align 4, !tbaa !28
  call void @llvm.lifetime.start.p0(i64 4, ptr %5) #14
  %6 = load ptr, ptr %3, align 8, !tbaa !89
  %7 = getelementptr inbounds nuw %struct.pmix_object_t, ptr %6, i32 0, i32 0
  %8 = call i32 @pthread_mutex_lock(ptr noundef %7) #14
  store i32 %8, ptr %5, align 4, !tbaa !28
  %9 = load i32, ptr %5, align 4, !tbaa !28
  %10 = icmp eq i32 %9, 35
  br i1 %10, label %11, label %14

11:                                               ; preds = %2
  %12 = load i32, ptr %5, align 4, !tbaa !28
  %13 = call ptr @__errno_location() #16
  store i32 %12, ptr %13, align 4, !tbaa !28
  call void @perror(ptr noundef @.str.86)
  call void @abort() #17
  unreachable

14:                                               ; preds = %2
  %15 = load i32, ptr %4, align 4, !tbaa !28
  %16 = load ptr, ptr %3, align 8, !tbaa !89
  %17 = getelementptr inbounds nuw %struct.pmix_object_t, ptr %16, i32 0, i32 2
  %18 = load i32, ptr %17, align 8, !tbaa !83
  %19 = add nsw i32 %18, %15
  store i32 %19, ptr %17, align 8, !tbaa !83
  store i32 %19, ptr %5, align 4, !tbaa !28
  %20 = load ptr, ptr %3, align 8, !tbaa !89
  %21 = getelementptr inbounds nuw %struct.pmix_object_t, ptr %20, i32 0, i32 0
  %22 = call i32 @pthread_mutex_unlock(ptr noundef %21) #14
  %23 = load i32, ptr %5, align 4, !tbaa !28
  call void @llvm.lifetime.end.p0(i64 4, ptr %5) #14
  ret i32 %23
}

; Function Attrs: nounwind uwtable
define internal void @regevopcbfunc(i32 noundef %0, ptr noundef %1) #0 {
  %3 = alloca i32, align 4
  %4 = alloca ptr, align 8
  %5 = alloca ptr, align 8
  %6 = alloca i32, align 4
  %7 = alloca ptr, align 8
  store i32 %0, ptr %3, align 4, !tbaa !28
  store ptr %1, ptr %4, align 8, !tbaa !8
  call void @llvm.lifetime.start.p0(i64 8, ptr %5) #14
  %8 = load ptr, ptr %4, align 8, !tbaa !8
  store ptr %8, ptr %5, align 8, !tbaa !8
  %9 = load i32, ptr %3, align 4, !tbaa !28
  %10 = icmp eq i32 0, %9
  br i1 %10, label %11, label %13

11:                                               ; preds = %2
  %12 = load ptr, ptr %5, align 8, !tbaa !8
  call void @_check_cached_events(i32 noundef 0, i16 noundef signext 0, ptr noundef %12)
  store i32 1, ptr %6, align 4
  br label %75

13:                                               ; preds = %2
  %14 = load ptr, ptr %5, align 8, !tbaa !8
  %15 = getelementptr inbounds nuw %struct.pmix_setup_caddy_t, ptr %14, i32 0, i32 6
  %16 = load ptr, ptr %15, align 8, !tbaa !235
  %17 = icmp ne ptr null, %16
  br i1 %17, label %18, label %22

18:                                               ; preds = %13
  %19 = load ptr, ptr %5, align 8, !tbaa !8
  %20 = getelementptr inbounds nuw %struct.pmix_setup_caddy_t, ptr %19, i32 0, i32 6
  %21 = load ptr, ptr %20, align 8, !tbaa !235
  call void @free(ptr noundef %21) #14
  br label %22

22:                                               ; preds = %18, %13
  %23 = load ptr, ptr %5, align 8, !tbaa !8
  %24 = getelementptr inbounds nuw %struct.pmix_setup_caddy_t, ptr %23, i32 0, i32 15
  %25 = load ptr, ptr %24, align 8, !tbaa !233
  %26 = icmp ne ptr null, %25
  br i1 %26, label %27, label %39

27:                                               ; preds = %22
  br label %28

28:                                               ; preds = %27
  %29 = load ptr, ptr %5, align 8, !tbaa !8
  %30 = getelementptr inbounds nuw %struct.pmix_setup_caddy_t, ptr %29, i32 0, i32 15
  %31 = load ptr, ptr %30, align 8, !tbaa !233
  %32 = load ptr, ptr %5, align 8, !tbaa !8
  %33 = getelementptr inbounds nuw %struct.pmix_setup_caddy_t, ptr %32, i32 0, i32 16
  %34 = load i64, ptr %33, align 8, !tbaa !232
  call void @PMIx_Info_free(ptr noundef %31, i64 noundef %34)
  %35 = load ptr, ptr %5, align 8, !tbaa !8
  %36 = getelementptr inbounds nuw %struct.pmix_setup_caddy_t, ptr %35, i32 0, i32 15
  store ptr null, ptr %36, align 8, !tbaa !233
  br label %37

37:                                               ; preds = %28
  br label %38

38:                                               ; preds = %37
  br label %39

39:                                               ; preds = %38, %22
  %40 = load ptr, ptr %5, align 8, !tbaa !8
  %41 = getelementptr inbounds nuw %struct.pmix_setup_caddy_t, ptr %40, i32 0, i32 29
  %42 = load ptr, ptr %41, align 8, !tbaa !231
  %43 = icmp ne ptr null, %42
  br i1 %43, label %44, label %52

44:                                               ; preds = %39
  %45 = load ptr, ptr %5, align 8, !tbaa !8
  %46 = getelementptr inbounds nuw %struct.pmix_setup_caddy_t, ptr %45, i32 0, i32 29
  %47 = load ptr, ptr %46, align 8, !tbaa !231
  %48 = load i32, ptr %3, align 4, !tbaa !28
  %49 = load ptr, ptr %5, align 8, !tbaa !8
  %50 = getelementptr inbounds nuw %struct.pmix_setup_caddy_t, ptr %49, i32 0, i32 34
  %51 = load ptr, ptr %50, align 8, !tbaa !130
  call void %47(i32 noundef %48, ptr noundef %51)
  br label %52

52:                                               ; preds = %44, %39
  br label %53

53:                                               ; preds = %52
  call void @llvm.lifetime.start.p0(i64 8, ptr %7) #14
  %54 = load ptr, ptr %5, align 8, !tbaa !8
  store ptr %54, ptr %7, align 8, !tbaa !89
  %55 = load ptr, ptr %7, align 8, !tbaa !89
  %56 = call i32 @pmix_obj_update(ptr noundef %55, i32 noundef -1)
  %57 = icmp eq i32 0, %56
  br i1 %57, label %58, label %72

58:                                               ; preds = %53
  %59 = load ptr, ptr %7, align 8, !tbaa !89
  call void @pmix_obj_run_destructors(ptr noundef %59)
  %60 = load ptr, ptr %7, align 8, !tbaa !89
  %61 = getelementptr inbounds nuw %struct.pmix_object_t, ptr %60, i32 0, i32 3
  %62 = getelementptr inbounds nuw %struct.pmix_tma, ptr %61, i32 0, i32 5
  %63 = load ptr, ptr %62, align 8, !tbaa !91
  %64 = icmp ne ptr null, %63
  br i1 %64, label %65, label %69

65:                                               ; preds = %58
  %66 = load ptr, ptr %7, align 8, !tbaa !89
  %67 = getelementptr inbounds nuw %struct.pmix_object_t, ptr %66, i32 0, i32 3
  %68 = load ptr, ptr %5, align 8, !tbaa !8
  call void @pmix_tma_free(ptr noundef %67, ptr noundef %68)
  br label %71

69:                                               ; preds = %58
  %70 = load ptr, ptr %5, align 8, !tbaa !8
  call void @free(ptr noundef %70) #14
  br label %71

71:                                               ; preds = %69, %65
  store ptr null, ptr %5, align 8, !tbaa !8
  br label %72

72:                                               ; preds = %71, %53
  call void @llvm.lifetime.end.p0(i64 8, ptr %7) #14
  br label %73

73:                                               ; preds = %72
  br label %74

74:                                               ; preds = %73
  store i32 0, ptr %6, align 4
  br label %75

75:                                               ; preds = %74, %11
  call void @llvm.lifetime.end.p0(i64 8, ptr %5) #14
  %76 = load i32, ptr %6, align 4
  switch i32 %76, label %78 [
    i32 0, label %77
    i32 1, label %77
  ]

77:                                               ; preds = %75, %75
  ret void

78:                                               ; preds = %75
  unreachable
}