; Function Attrs: nounwind uwtable
define internal void @regevopcbfunc(i32 noundef %0, ptr noundef %1) #0 {
  %3 = icmp eq i32 %0, 0
  br i1 %3, label %4, label %5

4:                                                ; preds = %2
  tail call void @_check_cached_events(i32 poison, i16 signext poison, ptr noundef %1)
  br label %45

5:                                                ; preds = %2
  %6 = getelementptr inbounds nuw i8, ptr %1, i64 496
  %7 = load ptr, ptr %6, align 8, !tbaa !202
  %.not = icmp eq ptr %7, null
  br i1 %.not, label %9, label %8

8:                                                ; preds = %5
  tail call void @free(ptr noundef nonnull %7) #19
  br label %9

9:                                                ; preds = %8, %5
  %10 = getelementptr inbounds nuw i8, ptr %1, i64 816
  %11 = load ptr, ptr %10, align 8, !tbaa !200
  %.not22 = icmp eq ptr %11, null
  br i1 %.not22, label %15, label %12

12:                                               ; preds = %9
  %13 = getelementptr inbounds nuw i8, ptr %1, i64 824
  %14 = load i64, ptr %13, align 8, !tbaa !199
  tail call void @PMIx_Info_free(ptr noundef nonnull %11, i64 noundef %14) #19
  store ptr null, ptr %10, align 8, !tbaa !200
  br label %15

15:                                               ; preds = %12, %9
  %16 = getelementptr inbounds nuw i8, ptr %1, i64 952
  %17 = load ptr, ptr %16, align 8, !tbaa !198
  %.not23 = icmp eq ptr %17, null
  br i1 %.not23, label %21, label %18

18:                                               ; preds = %15
  %19 = getelementptr inbounds nuw i8, ptr %1, i64 992
  %20 = load ptr, ptr %19, align 8, !tbaa !128
  tail call void %17(i32 noundef %0, ptr noundef %20) #19
  br label %21

21:                                               ; preds = %15, %18
  %22 = tail call i32 @pthread_mutex_lock(ptr noundef nonnull %1) #19
  %23 = icmp eq i32 %22, 35
  br i1 %23, label %24, label %pmix_obj_update.exit

24:                                               ; preds = %21
  %25 = tail call ptr @__errno_location() #22
  store i32 35, ptr %25, align 4, !tbaa !23
  tail call void @perror(ptr noundef nonnull @.str.86) #23
  tail call void @abort() #24
  unreachable

pmix_obj_update.exit:                             ; preds = %21
  %26 = getelementptr inbounds nuw i8, ptr %1, i64 48
  %27 = load i32, ptr %26, align 8, !tbaa !78
  %28 = add nsw i32 %27, -1
  store i32 %28, ptr %26, align 8, !tbaa !78
  %29 = tail call i32 @pthread_mutex_unlock(ptr noundef nonnull %1) #19
  %30 = icmp eq i32 %28, 0
  br i1 %30, label %31, label %45

31:                                               ; preds = %pmix_obj_update.exit
  %32 = getelementptr inbounds nuw i8, ptr %1, i64 40
  %33 = load ptr, ptr %32, align 8, !tbaa !77
  %34 = getelementptr inbounds nuw i8, ptr %33, i64 48
  %35 = load ptr, ptr %34, align 8, !tbaa !88
  %36 = load ptr, ptr %35, align 8, !tbaa !80
  %.not6.i = icmp eq ptr %36, null
  br i1 %.not6.i, label %pmix_obj_run_destructors.exit, label %.lr.ph.i

.lr.ph.i:                                         ; preds = %31, %.lr.ph.i
  %37 = phi ptr [ %39, %.lr.ph.i ], [ %36, %31 ]
  %.07.i = phi ptr [ %38, %.lr.ph.i ], [ %35, %31 ]
  tail call void %37(ptr noundef nonnull %1) #19
  %38 = getelementptr inbounds nuw i8, ptr %.07.i, i64 8
  %39 = load ptr, ptr %38, align 8, !tbaa !80
  %.not.i = icmp eq ptr %39, null
  br i1 %.not.i, label %pmix_obj_run_destructors.exit, label %.lr.ph.i, !llvm.loop !89

pmix_obj_run_destructors.exit:                    ; preds = %.lr.ph.i, %31
  %40 = getelementptr inbounds nuw i8, ptr %1, i64 96
  %41 = load ptr, ptr %40, align 8, !tbaa !90
  %.not24 = icmp eq ptr %41, null
  br i1 %.not24, label %44, label %42

42:                                               ; preds = %pmix_obj_run_destructors.exit
  %43 = getelementptr inbounds nuw i8, ptr %1, i64 56
  tail call void %41(ptr noundef nonnull %43, ptr noundef nonnull %1) #19
  br label %45

44:                                               ; preds = %pmix_obj_run_destructors.exit
  tail call void @free(ptr noundef nonnull %1) #19
  br label %45

45:                                               ; preds = %pmix_obj_update.exit, %44, %42, %4
  ret void
}